; ModuleID = '35/1993.c'
source_filename = "35/1993.c"
target datalayout = "e-m:e-p270:32:32-p271:32:32-p272:64:64-i64:64-f80:128-n8:16:32:64-S128"
target triple = "x86_64-pc-linux-gnu"

%struct.zui = type { i32, i32, i32 }

@.str = private unnamed_addr constant [6 x i8] c"%d,%d\00", align 1
@.str.1 = private unnamed_addr constant [3 x i8] c"%d\00", align 1
@.str.2 = private unnamed_addr constant [6 x i8] c"%d+%d\00", align 1
@.str.3 = private unnamed_addr constant [3 x i8] c"No\00", align 1

; Function Attrs: noinline nounwind uwtable
define dso_local i32 @main() #0 {
  %1 = alloca i32, align 4
  %2 = alloca i32, align 4
  %3 = alloca i32, align 4
  %4 = alloca [8 x [8 x i32]], align 16
  %5 = alloca i32, align 4
  %6 = alloca i32, align 4
  %7 = alloca i32, align 4
  %8 = alloca i32, align 4
  %9 = alloca i32, align 4
  %10 = alloca i32, align 4
  %11 = alloca i32, align 4
  %12 = alloca i32, align 4
  %13 = alloca i32, align 4
  %14 = alloca [8 x %struct.zui], align 16
  store i32 0, i32* %1, align 4
  store i32 0, i32* %13, align 4
  %15 = call i32 (i8*, ...) @__isoc99_scanf(i8* getelementptr inbounds ([6 x i8], [6 x i8]* @.str, i64 0, i64 0), i32* %2, i32* %3)
  store i32 0, i32* %5, align 4
  br label %16

16:                                               ; preds = %37, %0
  %17 = load i32, i32* %5, align 4
  %18 = load i32, i32* %2, align 4
  %19 = icmp slt i32 %17, %18
  br i1 %19, label %20, label %40

20:                                               ; preds = %16
  store i32 0, i32* %6, align 4
  br label %21

21:                                               ; preds = %33, %20
  %22 = load i32, i32* %6, align 4
  %23 = load i32, i32* %3, align 4
  %24 = icmp slt i32 %22, %23
  br i1 %24, label %25, label %36

25:                                               ; preds = %21
  %26 = load i32, i32* %5, align 4
  %27 = sext i32 %26 to i64
  %28 = getelementptr inbounds [8 x [8 x i32]], [8 x [8 x i32]]* %4, i64 0, i64 %27
  %29 = load i32, i32* %6, align 4
  %30 = sext i32 %29 to i64
  %31 = getelementptr inbounds [8 x i32], [8 x i32]* %28, i64 0, i64 %30
  %32 = call i32 (i8*, ...) @__isoc99_scanf(i8* getelementptr inbounds ([3 x i8], [3 x i8]* @.str.1, i64 0, i64 0), i32* %31)
  br label %33

33:                                               ; preds = %25
  %34 = load i32, i32* %6, align 4
  %35 = add nsw i32 %34, 1
  store i32 %35, i32* %6, align 4
  br label %21

36:                                               ; preds = %21
  br label %37

37:                                               ; preds = %36
  %38 = load i32, i32* %5, align 4
  %39 = add nsw i32 %38, 1
  store i32 %39, i32* %5, align 4
  br label %16

40:                                               ; preds = %16
  store i32 0, i32* %5, align 4
  br label %41

41:                                               ; preds = %106, %40
  %42 = load i32, i32* %5, align 4
  %43 = load i32, i32* %2, align 4
  %44 = icmp slt i32 %42, %43
  br i1 %44, label %45, label %109

45:                                               ; preds = %41
  store i32 0, i32* %6, align 4
  br label %46

46:                                               ; preds = %81, %45
  %47 = load i32, i32* %6, align 4
  %48 = load i32, i32* %3, align 4
  %49 = icmp slt i32 %47, %48
  br i1 %49, label %50, label %84

50:                                               ; preds = %46
  %51 = load i32, i32* %6, align 4
  %52 = icmp eq i32 %51, 0
  br i1 %52, label %53, label %60

53:                                               ; preds = %50
  %54 = load i32, i32* %5, align 4
  %55 = sext i32 %54 to i64
  %56 = getelementptr inbounds [8 x [8 x i32]], [8 x [8 x i32]]* %4, i64 0, i64 %55
  %57 = getelementptr inbounds [8 x i32], [8 x i32]* %56, i64 0, i64 0
  %58 = load i32, i32* %57, align 16
  store i32 %58, i32* %9, align 4
  %59 = load i32, i32* %5, align 4
  store i32 %59, i32* %7, align 4
  store i32 0, i32* %8, align 4
  br label %81

60:                                               ; preds = %50
  %61 = load i32, i32* %5, align 4
  %62 = sext i32 %61 to i64
  %63 = getelementptr inbounds [8 x [8 x i32]], [8 x [8 x i32]]* %4, i64 0, i64 %62
  %64 = load i32, i32* %6, align 4
  %65 = sext i32 %64 to i64
  %66 = getelementptr inbounds [8 x i32], [8 x i32]* %63, i64 0, i64 %65
  %67 = load i32, i32* %66, align 4
  %68 = load i32, i32* %9, align 4
  %69 = icmp sgt i32 %67, %68
  br i1 %69, label %70, label %80

70:                                               ; preds = %60
  %71 = load i32, i32* %5, align 4
  %72 = sext i32 %71 to i64
  %73 = getelementptr inbounds [8 x [8 x i32]], [8 x [8 x i32]]* %4, i64 0, i64 %72
  %74 = load i32, i32* %6, align 4
  %75 = sext i32 %74 to i64
  %76 = getelementptr inbounds [8 x i32], [8 x i32]* %73, i64 0, i64 %75
  %77 = load i32, i32* %76, align 4
  store i32 %77, i32* %9, align 4
  %78 = load i32, i32* %5, align 4
  store i32 %78, i32* %7, align 4
  %79 = load i32, i32* %6, align 4
  store i32 %79, i32* %8, align 4
  br label %80

80:                                               ; preds = %70, %60
  br label %81

81:                                               ; preds = %80, %53
  %82 = load i32, i32* %6, align 4
  %83 = add nsw i32 %82, 1
  store i32 %83, i32* %6, align 4
  br label %46

84:                                               ; preds = %46
  %85 = load i32, i32* %8, align 4
  %86 = load i32, i32* %5, align 4
  %87 = sext i32 %86 to i64
  %88 = getelementptr inbounds [8 x %struct.zui], [8 x %struct.zui]* %14, i64 0, i64 %87
  %89 = getelementptr inbounds %struct.zui, %struct.zui* %88, i32 0, i32 0
  store i32 %85, i32* %89, align 4
  %90 = load i32, i32* %7, align 4
  %91 = load i32, i32* %5, align 4
  %92 = sext i32 %91 to i64
  %93 = getelementptr inbounds [8 x %struct.zui], [8 x %struct.zui]* %14, i64 0, i64 %92
  %94 = getelementptr inbounds %struct.zui, %struct.zui* %93, i32 0, i32 1
  store i32 %90, i32* %94, align 4
  %95 = load i32, i32* %7, align 4
  %96 = sext i32 %95 to i64
  %97 = getelementptr inbounds [8 x [8 x i32]], [8 x [8 x i32]]* %4, i64 0, i64 %96
  %98 = load i32, i32* %8, align 4
  %99 = sext i32 %98 to i64
  %100 = getelementptr inbounds [8 x i32], [8 x i32]* %97, i64 0, i64 %99
  %101 = load i32, i32* %100, align 4
  %102 = load i32, i32* %5, align 4
  %103 = sext i32 %102 to i64
  %104 = getelementptr inbounds [8 x %struct.zui], [8 x %struct.zui]* %14, i64 0, i64 %103
  %105 = getelementptr inbounds %struct.zui, %struct.zui* %104, i32 0, i32 2
  store i32 %101, i32* %105, align 4
  br label %106

106:                                              ; preds = %84
  %107 = load i32, i32* %5, align 4
  %108 = add nsw i32 %107, 1
  store i32 %108, i32* %5, align 4
  br label %41

109:                                              ; preds = %41
  store i32 0, i32* %10, align 4
  br label %110

110:                                              ; preds = %164, %109
  %111 = load i32, i32* %10, align 4
  %112 = load i32, i32* %2, align 4
  %113 = icmp slt i32 %111, %112
  br i1 %113, label %114, label %167

114:                                              ; preds = %110
  %115 = load i32, i32* %10, align 4
  %116 = sext i32 %115 to i64
  %117 = getelementptr inbounds [8 x %struct.zui], [8 x %struct.zui]* %14, i64 0, i64 %116
  %118 = getelementptr inbounds %struct.zui, %struct.zui* %117, i32 0, i32 0
  %119 = load i32, i32* %118, align 4
  store i32 %119, i32* %12, align 4
  store i32 0, i32* %11, align 4
  br label %120

120:                                              ; preds = %160, %114
  %121 = load i32, i32* %11, align 4
  %122 = load i32, i32* %2, align 4
  %123 = icmp slt i32 %121, %122
  br i1 %123, label %124, label %163

124:                                              ; preds = %120
  %125 = load i32, i32* %10, align 4
  %126 = sext i32 %125 to i64
  %127 = getelementptr inbounds [8 x %struct.zui], [8 x %struct.zui]* %14, i64 0, i64 %126
  %128 = getelementptr inbounds %struct.zui, %struct.zui* %127, i32 0, i32 2
  %129 = load i32, i32* %128, align 4
  %130 = load i32, i32* %11, align 4
  %131 = sext i32 %130 to i64
  %132 = getelementptr inbounds [8 x [8 x i32]], [8 x [8 x i32]]* %4, i64 0, i64 %131
  %133 = load i32, i32* %12, align 4
  %134 = sext i32 %133 to i64
  %135 = getelementptr inbounds [8 x i32], [8 x i32]* %132, i64 0, i64 %134
  %136 = load i32, i32* %135, align 4
  %137 = icmp sgt i32 %129, %136
  br i1 %137, label %138, label %139

138:                                              ; preds = %124
  br label %163

139:                                              ; preds = %124
  %140 = load i32, i32* %11, align 4
  %141 = load i32, i32* %2, align 4
  %142 = sub nsw i32 %141, 1
  %143 = icmp eq i32 %140, %142
  br i1 %143, label %144, label %158

144:                                              ; preds = %139
  %145 = load i32, i32* %10, align 4
  %146 = sext i32 %145 to i64
  %147 = getelementptr inbounds [8 x %struct.zui], [8 x %struct.zui]* %14, i64 0, i64 %146
  %148 = getelementptr inbounds %struct.zui, %struct.zui* %147, i32 0, i32 1
  %149 = load i32, i32* %148, align 4
  %150 = load i32, i32* %10, align 4
  %151 = sext i32 %150 to i64
  %152 = getelementptr inbounds [8 x %struct.zui], [8 x %struct.zui]* %14, i64 0, i64 %151
  %153 = getelementptr inbounds %struct.zui, %struct.zui* %152, i32 0, i32 0
  %154 = load i32, i32* %153, align 4
  %155 = call i32 (i8*, ...) @printf(i8* getelementptr inbounds ([6 x i8], [6 x i8]* @.str.2, i64 0, i64 0), i32 %149, i32 %154)
  %156 = load i32, i32* %13, align 4
  %157 = add nsw i32 %156, 1
  store i32 %157, i32* %13, align 4
  br label %158

158:                                              ; preds = %144, %139
  br label %159

159:                                              ; preds = %158
  br label %160

160:                                              ; preds = %159
  %161 = load i32, i32* %11, align 4
  %162 = add nsw i32 %161, 1
  store i32 %162, i32* %11, align 4
  br label %120

163:                                              ; preds = %138, %120
  br label %164

164:                                              ; preds = %163
  %165 = load i32, i32* %10, align 4
  %166 = add nsw i32 %165, 1
  store i32 %166, i32* %10, align 4
  br label %110

167:                                              ; preds = %110
  %168 = load i32, i32* %13, align 4
  %169 = icmp eq i32 %168, 0
  br i1 %169, label %170, label %172

170:                                              ; preds = %167
  %171 = call i32 (i8*, ...) @printf(i8* getelementptr inbounds ([3 x i8], [3 x i8]* @.str.3, i64 0, i64 0))
  br label %172

172:                                              ; preds = %170, %167
  ret i32 0
}

declare dso_local i32 @__isoc99_scanf(i8*, ...) #1

declare dso_local i32 @printf(i8*, ...) #1


!llvm.module.flags = !{!0}
!llvm.ident = !{!1}

!0 = !{i32 1, !"wchar_size", i32 4}
!1 = !{!"clang version 10.0.0-4ubuntu1 "}
